target datalayout = "e-m:e-p270:32:32-p271:32:32-p272:64:64-i64:64-i128:128-f80:128-n8:16:32:64-S128"
target triple = "x86_64-pc-linux-gnu"

%struct._packet_info = type { ptr, ptr, i32, i32, %struct.nstime_t, %struct.nstime_t, %struct.nstime_t, i8, ptr, ptr, ptr, ptr, %struct._address, %struct._address, %struct._address, %struct._address, %struct._address, %struct._address, i32, ptr, i8, [3 x i8], %struct.anon, i32, i32, i32, i32, ptr, i8, ptr, ptr, i16, i16, i32, i32, i16, i32, i32, ptr, ptr, ptr, i8, i8, i16, i16, i16, i32, i16, i16, ptr, ptr, ptr, ptr, ptr, i32, i32 }
%struct.nstime_t = type { i64, i32 }
%struct._address = type { i32, i32, ptr, ptr }
%struct.anon = type { i8, [3 x i8] }

@hf_s7comm_userdata_data = internal global i32 0, align 4
@hf_s7comm_data_blockcontrol_unknown1 = internal global i32 0, align 4
@hf_s7comm_data_blockcontrol_filename = internal global i32 0, align 4
@hf_s7comm_data_ncprg_unackcount = internal global i32 0, align 4
@hf_s7comm_data_ncprg_filelength = internal global i32 0, align 4
@hf_s7comm_data_ncprg_filetime = internal global i32 0, align 4
@hf_s7comm_data_ncprg_filepath = internal global i32 0, align 4
@hf_s7comm_data_ncprg_filedata = internal global i32 0, align 4
@.str.2180 = private unnamed_addr constant [11 x i8] c" File:[%s]\00", align 1

; Function Attrs: null_pointer_is_valid sspstrong uwtable
define internal i32 @s7comm_decode_ud_ncprg_subfunc(ptr noundef %0, ptr noundef %1, ptr noundef %2, i8 noundef zeroext %3, i8 noundef zeroext %4, i32 noundef %5, i32 noundef %6) #0 {
  %8 = alloca ptr, align 8
  %9 = alloca ptr, align 8
  %10 = alloca ptr, align 8
  %11 = alloca i8, align 1
  %12 = alloca i8, align 1
  %13 = alloca i32, align 4
  %14 = alloca i32, align 4
  %15 = alloca ptr, align 8
  %16 = alloca i32, align 4
  %17 = alloca i32, align 4
  %18 = alloca i32, align 4
  %19 = alloca i32, align 4
  store ptr %0, ptr %8, align 8
  store ptr %1, ptr %9, align 8
  store ptr %2, ptr %10, align 8
  store i8 %3, ptr %11, align 1
  store i8 %4, ptr %12, align 1
  store i32 %5, ptr %13, align 4
  store i32 %6, ptr %14, align 4
  call void @llvm.lifetime.start.p0(i64 8, ptr %15) #8
  call void @llvm.lifetime.start.p0(i64 4, ptr %16) #8
  call void @llvm.lifetime.start.p0(i64 4, ptr %17) #8
  call void @llvm.lifetime.start.p0(i64 4, ptr %18) #8
  call void @llvm.lifetime.start.p0(i64 4, ptr %19) #8
  %20 = load i32, ptr %13, align 4
  %21 = icmp uge i32 %20, 2
  br i1 %21, label %22, label %258

22:                                               ; preds = %7
  %23 = load i8, ptr %11, align 1
  %24 = zext i8 %23 to i32
  %25 = icmp eq i32 %24, 1
  br i1 %25, label %26, label %47

26:                                               ; preds = %22
  %27 = load i8, ptr %12, align 1
  %28 = zext i8 %27 to i32
  %29 = icmp eq i32 %28, 1
  br i1 %29, label %30, label %47

30:                                               ; preds = %26
  %31 = load ptr, ptr %10, align 8
  %32 = load i32, ptr @hf_s7comm_data_blockcontrol_filename, align 4
  %33 = load ptr, ptr %8, align 8
  %34 = load i32, ptr %14, align 4
  %35 = load i32, ptr %13, align 4
  %36 = load ptr, ptr %9, align 8
  %37 = getelementptr inbounds nuw %struct._packet_info, ptr %36, i32 0, i32 51
  %38 = load ptr, ptr %37, align 8
  %39 = call ptr @proto_tree_add_item_ret_string(ptr noundef %31, i32 noundef %32, ptr noundef %33, i32 noundef %34, i32 noundef %35, i32 noundef 0, ptr noundef %38, ptr noundef %15)
  %40 = load ptr, ptr %9, align 8
  %41 = getelementptr inbounds nuw %struct._packet_info, ptr %40, i32 0, i32 1
  %42 = load ptr, ptr %41, align 8
  %43 = load ptr, ptr %15, align 8
  call void (ptr, i32, ptr, ...) @col_append_fstr(ptr noundef %42, i32 noundef 25, ptr noundef @.str.2180, ptr noundef %43)
  %44 = load i32, ptr %13, align 4
  %45 = load i32, ptr %14, align 4
  %46 = add i32 %45, %44
  store i32 %46, ptr %14, align 4
  br label %257

47:                                               ; preds = %26, %22
  %48 = load i8, ptr %11, align 1
  %49 = zext i8 %48 to i32
  %50 = icmp eq i32 %49, 1
  br i1 %50, label %51, label %90

51:                                               ; preds = %47
  %52 = load i8, ptr %12, align 1
  %53 = zext i8 %52 to i32
  %54 = icmp eq i32 %53, 6
  br i1 %54, label %55, label %90

55:                                               ; preds = %51
  %56 = load ptr, ptr %10, align 8
  %57 = load i32, ptr @hf_s7comm_data_ncprg_unackcount, align 4
  %58 = load ptr, ptr %8, align 8
  %59 = load i32, ptr %14, align 4
  %60 = call ptr @proto_tree_add_item(ptr noundef %56, i32 noundef %57, ptr noundef %58, i32 noundef %59, i32 noundef 1, i32 noundef 0)
  %61 = load i32, ptr %14, align 4
  %62 = add i32 %61, 1
  store i32 %62, ptr %14, align 4
  %63 = load i32, ptr %13, align 4
  %64 = sub i32 %63, 1
  store i32 %64, ptr %13, align 4
  %65 = load ptr, ptr %10, align 8
  %66 = load i32, ptr @hf_s7comm_data_blockcontrol_unknown1, align 4
  %67 = load ptr, ptr %8, align 8
  %68 = load i32, ptr %14, align 4
  %69 = call ptr @proto_tree_add_item(ptr noundef %65, i32 noundef %66, ptr noundef %67, i32 noundef %68, i32 noundef 1, i32 noundef 0)
  %70 = load i32, ptr %14, align 4
  %71 = add i32 %70, 1
  store i32 %71, ptr %14, align 4
  %72 = load i32, ptr %13, align 4
  %73 = sub i32 %72, 1
  store i32 %73, ptr %13, align 4
  %74 = load ptr, ptr %10, align 8
  %75 = load i32, ptr @hf_s7comm_data_blockcontrol_filename, align 4
  %76 = load ptr, ptr %8, align 8
  %77 = load i32, ptr %14, align 4
  %78 = load i32, ptr %13, align 4
  %79 = load ptr, ptr %9, align 8
  %80 = getelementptr inbounds nuw %struct._packet_info, ptr %79, i32 0, i32 51
  %81 = load ptr, ptr %80, align 8
  %82 = call ptr @proto_tree_add_item_ret_string(ptr noundef %74, i32 noundef %75, ptr noundef %76, i32 noundef %77, i32 noundef %78, i32 noundef 0, ptr noundef %81, ptr noundef %15)
  %83 = load ptr, ptr %9, align 8
  %84 = getelementptr inbounds nuw %struct._packet_info, ptr %83, i32 0, i32 1
  %85 = load ptr, ptr %84, align 8
  %86 = load ptr, ptr %15, align 8
  call void (ptr, i32, ptr, ...) @col_append_fstr(ptr noundef %85, i32 noundef 25, ptr noundef @.str.2180, ptr noundef %86)
  %87 = load i32, ptr %13, align 4
  %88 = load i32, ptr %14, align 4
  %89 = add i32 %88, %87
  store i32 %89, ptr %14, align 4
  br label %256

90:                                               ; preds = %51, %47
  %91 = load i8, ptr %11, align 1
  %92 = zext i8 %91 to i32
  %93 = icmp eq i32 %92, 2
  br i1 %93, label %94, label %113

94:                                               ; preds = %90
  %95 = load i8, ptr %12, align 1
  %96 = zext i8 %95 to i32
  %97 = icmp eq i32 %96, 1
  br i1 %97, label %98, label %113

98:                                               ; preds = %94
  %99 = load ptr, ptr %10, align 8
  %100 = load i32, ptr @hf_s7comm_data_ncprg_unackcount, align 4
  %101 = load ptr, ptr %8, align 8
  %102 = load i32, ptr %14, align 4
  %103 = call ptr @proto_tree_add_item(ptr noundef %99, i32 noundef %100, ptr noundef %101, i32 noundef %102, i32 noundef 1, i32 noundef 0)
  %104 = load i32, ptr %14, align 4
  %105 = add i32 %104, 1
  store i32 %105, ptr %14, align 4
  %106 = load ptr, ptr %10, align 8
  %107 = load i32, ptr @hf_s7comm_data_blockcontrol_unknown1, align 4
  %108 = load ptr, ptr %8, align 8
  %109 = load i32, ptr %14, align 4
  %110 = call ptr @proto_tree_add_item(ptr noundef %106, i32 noundef %107, ptr noundef %108, i32 noundef %109, i32 noundef 1, i32 noundef 0)
  %111 = load i32, ptr %14, align 4
  %112 = add i32 %111, 1
  store i32 %112, ptr %14, align 4
  br label %255

113:                                              ; preds = %94, %90
  %114 = load i8, ptr %11, align 1
  %115 = zext i8 %114 to i32
  %116 = icmp eq i32 %115, 0
  br i1 %116, label %117, label %140

117:                                              ; preds = %113
  %118 = load i8, ptr %12, align 1
  %119 = zext i8 %118 to i32
  %120 = icmp eq i32 %119, 8
  br i1 %120, label %125, label %121

121:                                              ; preds = %117
  %122 = load i8, ptr %12, align 1
  %123 = zext i8 %122 to i32
  %124 = icmp eq i32 %123, 3
  br i1 %124, label %125, label %140

125:                                              ; preds = %121, %117
  %126 = load ptr, ptr %10, align 8
  %127 = load i32, ptr @hf_s7comm_data_ncprg_unackcount, align 4
  %128 = load ptr, ptr %8, align 8
  %129 = load i32, ptr %14, align 4
  %130 = call ptr @proto_tree_add_item(ptr noundef %126, i32 noundef %127, ptr noundef %128, i32 noundef %129, i32 noundef 1, i32 noundef 0)
  %131 = load i32, ptr %14, align 4
  %132 = add i32 %131, 1
  store i32 %132, ptr %14, align 4
  %133 = load ptr, ptr %10, align 8
  %134 = load i32, ptr @hf_s7comm_data_blockcontrol_unknown1, align 4
  %135 = load ptr, ptr %8, align 8
  %136 = load i32, ptr %14, align 4
  %137 = call ptr @proto_tree_add_item(ptr noundef %133, i32 noundef %134, ptr noundef %135, i32 noundef %136, i32 noundef 1, i32 noundef 0)
  %138 = load i32, ptr %14, align 4
  %139 = add i32 %138, 1
  store i32 %139, ptr %14, align 4
  br label %254

140:                                              ; preds = %121, %113
  %141 = load i8, ptr %11, align 1
  %142 = zext i8 %141 to i32
  %143 = icmp eq i32 %142, 2
  br i1 %143, label %148, label %144

144:                                              ; preds = %140
  %145 = load i8, ptr %11, align 1
  %146 = zext i8 %145 to i32
  %147 = icmp eq i32 %146, 0
  br i1 %147, label %148, label %230

148:                                              ; preds = %144, %140
  %149 = load i8, ptr %12, align 1
  %150 = zext i8 %149 to i32
  %151 = icmp eq i32 %150, 2
  br i1 %151, label %160, label %152

152:                                              ; preds = %148
  %153 = load i8, ptr %12, align 1
  %154 = zext i8 %153 to i32
  %155 = icmp eq i32 %154, 7
  br i1 %155, label %160, label %156

156:                                              ; preds = %152
  %157 = load i8, ptr %12, align 1
  %158 = zext i8 %157 to i32
  %159 = icmp eq i32 %158, 6
  br i1 %159, label %160, label %230

160:                                              ; preds = %156, %152, %148
  %161 = load i32, ptr %14, align 4
  store i32 %161, ptr %19, align 4
  %162 = load ptr, ptr %10, align 8
  %163 = load i32, ptr @hf_s7comm_data_ncprg_filelength, align 4
  %164 = load ptr, ptr %8, align 8
  %165 = load i32, ptr %14, align 4
  %166 = call ptr @proto_tree_add_item(ptr noundef %162, i32 noundef %163, ptr noundef %164, i32 noundef %165, i32 noundef 8, i32 noundef 0)
  %167 = load i32, ptr %14, align 4
  %168 = add i32 %167, 8
  store i32 %168, ptr %14, align 4
  %169 = load ptr, ptr %10, align 8
  %170 = load i32, ptr @hf_s7comm_data_ncprg_filetime, align 4
  %171 = load ptr, ptr %8, align 8
  %172 = load i32, ptr %14, align 4
  %173 = call ptr @proto_tree_add_item(ptr noundef %169, i32 noundef %170, ptr noundef %171, i32 noundef %172, i32 noundef 16, i32 noundef 0)
  %174 = load i32, ptr %14, align 4
  %175 = add i32 %174, 16
  store i32 %175, ptr %14, align 4
  %176 = load i32, ptr %13, align 4
  %177 = icmp ugt i32 %176, 24
  br i1 %177, label %178, label %229

178:                                              ; preds = %160
  %179 = load i8, ptr %12, align 1
  %180 = zext i8 %179 to i32
  %181 = icmp eq i32 %180, 2
  br i1 %181, label %190, label %182

182:                                              ; preds = %178
  %183 = load i8, ptr %12, align 1
  %184 = zext i8 %183 to i32
  %185 = icmp eq i32 %184, 6
  br i1 %185, label %190, label %186

186:                                              ; preds = %182
  %187 = load i8, ptr %12, align 1
  %188 = zext i8 %187 to i32
  %189 = icmp eq i32 %188, 7
  br i1 %189, label %190, label %228

190:                                              ; preds = %186, %182, %178
  %191 = load ptr, ptr %8, align 8
  %192 = load i32, ptr %14, align 4
  %193 = load i32, ptr %13, align 4
  %194 = sub i32 %193, 8
  %195 = sub i32 %194, 16
  %196 = call i32 @tvb_find_uint8(ptr noundef %191, i32 noundef %192, i32 noundef %195, i8 noundef zeroext 10)
  store i32 %196, ptr %16, align 4
  %197 = load i32, ptr %16, align 4
  %198 = icmp ugt i32 %197, 0
  br i1 %198, label %199, label %227

199:                                              ; preds = %190
  %200 = load i32, ptr %16, align 4
  %201 = load i32, ptr %14, align 4
  %202 = sub i32 %200, %201
  %203 = add i32 %202, 1
  store i32 %203, ptr %17, align 4
  %204 = load ptr, ptr %10, align 8
  %205 = load i32, ptr @hf_s7comm_data_ncprg_filepath, align 4
  %206 = load ptr, ptr %8, align 8
  %207 = load i32, ptr %14, align 4
  %208 = load i32, ptr %17, align 4
  %209 = call ptr @proto_tree_add_item(ptr noundef %204, i32 noundef %205, ptr noundef %206, i32 noundef %207, i32 noundef %208, i32 noundef 0)
  %210 = load i32, ptr %17, align 4
  %211 = load i32, ptr %14, align 4
  %212 = add i32 %211, %210
  store i32 %212, ptr %14, align 4
  %213 = load i32, ptr %13, align 4
  %214 = load i32, ptr %14, align 4
  %215 = load i32, ptr %19, align 4
  %216 = sub i32 %214, %215
  %217 = sub i32 %213, %216
  store i32 %217, ptr %18, align 4
  %218 = load ptr, ptr %10, align 8
  %219 = load i32, ptr @hf_s7comm_data_ncprg_filedata, align 4
  %220 = load ptr, ptr %8, align 8
  %221 = load i32, ptr %14, align 4
  %222 = load i32, ptr %18, align 4
  %223 = call ptr @proto_tree_add_item(ptr noundef %218, i32 noundef %219, ptr noundef %220, i32 noundef %221, i32 noundef %222, i32 noundef 0)
  %224 = load i32, ptr %18, align 4
  %225 = load i32, ptr %14, align 4
  %226 = add i32 %225, %224
  store i32 %226, ptr %14, align 4
  br label %227

227:                                              ; preds = %199, %190
  br label %228

228:                                              ; preds = %227, %186
  br label %229

229:                                              ; preds = %228, %160
  br label %253

230:                                              ; preds = %156, %144
  %231 = load ptr, ptr %10, align 8
  %232 = load i32, ptr @hf_s7comm_data_blockcontrol_unknown1, align 4
  %233 = load ptr, ptr %8, align 8
  %234 = load i32, ptr %14, align 4
  %235 = call ptr @proto_tree_add_item(ptr noundef %231, i32 noundef %232, ptr noundef %233, i32 noundef %234, i32 noundef 2, i32 noundef 0)
  %236 = load i32, ptr %14, align 4
  %237 = add i32 %236, 2
  store i32 %237, ptr %14, align 4
  %238 = load i32, ptr %13, align 4
  %239 = sub i32 %238, 2
  store i32 %239, ptr %13, align 4
  %240 = load i32, ptr %13, align 4
  %241 = icmp uge i32 %240, 4
  br i1 %241, label %242, label %252

242:                                              ; preds = %230
  %243 = load ptr, ptr %10, align 8
  %244 = load i32, ptr @hf_s7comm_userdata_data, align 4
  %245 = load ptr, ptr %8, align 8
  %246 = load i32, ptr %14, align 4
  %247 = load i32, ptr %13, align 4
  %248 = call ptr @proto_tree_add_item(ptr noundef %243, i32 noundef %244, ptr noundef %245, i32 noundef %246, i32 noundef %247, i32 noundef 0)
  %249 = load i32, ptr %13, align 4
  %250 = load i32, ptr %14, align 4
  %251 = add i32 %250, %249
  store i32 %251, ptr %14, align 4
  br label %252

252:                                              ; preds = %242, %230
  br label %253

253:                                              ; preds = %252, %229
  br label %254

254:                                              ; preds = %253, %125
  br label %255

255:                                              ; preds = %254, %98
  br label %256

256:                                              ; preds = %255, %55
  br label %257

257:                                              ; preds = %256, %30
  br label %258

258:                                              ; preds = %257, %7
  %259 = load i32, ptr %14, align 4
  call void @llvm.lifetime.end.p0(i64 4, ptr %19) #8
  call void @llvm.lifetime.end.p0(i64 4, ptr %18) #8
  call void @llvm.lifetime.end.p0(i64 4, ptr %17) #8
  call void @llvm.lifetime.end.p0(i64 4, ptr %16) #8
  call void @llvm.lifetime.end.p0(i64 8, ptr %15) #8
  ret i32 %259
}