; Function Attrs: null_pointer_is_valid sspstrong uwtable
define internal fastcc noundef i32 @s7comm_decode_ud_ncprg_subfunc(ptr noundef %0, ptr noundef readonly captures(none) %1, ptr noundef %2, i8 noundef zeroext range(i8 0, 4) %3, i8 noundef zeroext %4, i32 noundef range(i32 1, 0) %5, i32 noundef %6) unnamed_addr #0 {
  %8 = alloca ptr, align 8
  call void @llvm.lifetime.start.p0(i64 8, ptr nonnull %8) #8
  %9 = icmp ugt i32 %5, 1
  br i1 %9, label %10, label %92

10:                                               ; preds = %7
  %11 = icmp eq i8 %3, 1
  %12 = icmp eq i8 %4, 1
  %or.cond = and i1 %11, %12
  br i1 %or.cond, label %13, label %22

13:                                               ; preds = %10
  %14 = load i32, ptr @hf_s7comm_data_blockcontrol_filename, align 4
  %15 = getelementptr inbounds nuw i8, ptr %1, i64 408
  %16 = load ptr, ptr %15, align 8
  %17 = call ptr @proto_tree_add_item_ret_string(ptr noundef %2, i32 noundef %14, ptr noundef %0, i32 noundef %6, i32 noundef %5, i32 noundef 0, ptr noundef %16, ptr noundef nonnull %8)
  %18 = getelementptr inbounds nuw i8, ptr %1, i64 8
  %19 = load ptr, ptr %18, align 8
  %20 = load ptr, ptr %8, align 8
  call void (ptr, i32, ptr, ...) @col_append_fstr(ptr noundef %19, i32 noundef 25, ptr noundef nonnull @.str.2180, ptr noundef %20)
  %21 = add i32 %6, %5
  br label %92

22:                                               ; preds = %10
  %23 = icmp eq i8 %4, 6
  %or.cond5 = and i1 %11, %23
  br i1 %or.cond5, label %24, label %40

24:                                               ; preds = %22
  %25 = load i32, ptr @hf_s7comm_data_ncprg_unackcount, align 4
  %26 = tail call ptr @proto_tree_add_item(ptr noundef %2, i32 noundef %25, ptr noundef %0, i32 noundef %6, i32 noundef 1, i32 noundef 0)
  %27 = add i32 %6, 1
  %28 = load i32, ptr @hf_s7comm_data_blockcontrol_unknown1, align 4
  %29 = tail call ptr @proto_tree_add_item(ptr noundef %2, i32 noundef %28, ptr noundef %0, i32 noundef %27, i32 noundef 1, i32 noundef 0)
  %30 = add i32 %6, 2
  %31 = add i32 %5, -2
  %32 = load i32, ptr @hf_s7comm_data_blockcontrol_filename, align 4
  %33 = getelementptr inbounds nuw i8, ptr %1, i64 408
  %34 = load ptr, ptr %33, align 8
  %35 = call ptr @proto_tree_add_item_ret_string(ptr noundef %2, i32 noundef %32, ptr noundef %0, i32 noundef %30, i32 noundef %31, i32 noundef 0, ptr noundef %34, ptr noundef nonnull %8)
  %36 = getelementptr inbounds nuw i8, ptr %1, i64 8
  %37 = load ptr, ptr %36, align 8
  %38 = load ptr, ptr %8, align 8
  call void (ptr, i32, ptr, ...) @col_append_fstr(ptr noundef %37, i32 noundef 25, ptr noundef nonnull @.str.2180, ptr noundef %38)
  %39 = add i32 %6, %5
  br label %92

40:                                               ; preds = %22
  %41 = icmp eq i8 %3, 2
  %or.cond8 = and i1 %41, %12
  br i1 %or.cond8, label %42, label %49

42:                                               ; preds = %40
  %43 = load i32, ptr @hf_s7comm_data_ncprg_unackcount, align 4
  %44 = tail call ptr @proto_tree_add_item(ptr noundef %2, i32 noundef %43, ptr noundef %0, i32 noundef %6, i32 noundef 1, i32 noundef 0)
  %45 = add i32 %6, 1
  %46 = load i32, ptr @hf_s7comm_data_blockcontrol_unknown1, align 4
  %47 = tail call ptr @proto_tree_add_item(ptr noundef %2, i32 noundef %46, ptr noundef %0, i32 noundef %45, i32 noundef 1, i32 noundef 0)
  %48 = add i32 %6, 2
  br label %92

49:                                               ; preds = %40
  switch i8 %3, label %82 [
    i8 0, label %50
    i8 2, label %58
  ]

50:                                               ; preds = %49
  switch i8 %4, label %58 [
    i8 8, label %51
    i8 3, label %51
  ]

51:                                               ; preds = %50, %50
  %52 = load i32, ptr @hf_s7comm_data_ncprg_unackcount, align 4
  %53 = tail call ptr @proto_tree_add_item(ptr noundef %2, i32 noundef %52, ptr noundef %0, i32 noundef %6, i32 noundef 1, i32 noundef 0)
  %54 = add i32 %6, 1
  %55 = load i32, ptr @hf_s7comm_data_blockcontrol_unknown1, align 4
  %56 = tail call ptr @proto_tree_add_item(ptr noundef %2, i32 noundef %55, ptr noundef %0, i32 noundef %54, i32 noundef 1, i32 noundef 0)
  %57 = add i32 %6, 2
  br label %92

58:                                               ; preds = %50, %49
  %59 = icmp eq i8 %4, 2
  switch i8 %4, label %82 [
    i8 7, label %60
    i8 6, label %60
    i8 2, label %60
  ]

60:                                               ; preds = %58, %58, %58
  %61 = load i32, ptr @hf_s7comm_data_ncprg_filelength, align 4
  %62 = tail call ptr @proto_tree_add_item(ptr noundef %2, i32 noundef %61, ptr noundef %0, i32 noundef %6, i32 noundef 8, i32 noundef 0)
  %63 = add i32 %6, 8
  %64 = load i32, ptr @hf_s7comm_data_ncprg_filetime, align 4
  %65 = tail call ptr @proto_tree_add_item(ptr noundef %2, i32 noundef %64, ptr noundef %0, i32 noundef %63, i32 noundef 16, i32 noundef 0)
  %66 = add i32 %6, 24
  %67 = icmp ugt i32 %5, 24
  br i1 %67, label %68, label %92

68:                                               ; preds = %60
  %69 = and i8 %4, 6
  %70 = icmp eq i8 %69, 6
  %or.cond26 = or i1 %59, %70
  br i1 %or.cond26, label %71, label %92

71:                                               ; preds = %68
  %72 = add i32 %5, -24
  %73 = tail call i32 @tvb_find_uint8(ptr noundef %0, i32 noundef %66, i32 noundef %72, i8 noundef zeroext 10)
  %.not = icmp eq i32 %73, 0
  br i1 %.not, label %92, label %74

74:                                               ; preds = %71
  %reass.sub = sub i32 %73, %6
  %75 = add i32 %reass.sub, -23
  %76 = load i32, ptr @hf_s7comm_data_ncprg_filepath, align 4
  %77 = tail call ptr @proto_tree_add_item(ptr noundef %2, i32 noundef %76, ptr noundef %0, i32 noundef %66, i32 noundef %75, i32 noundef 0)
  %78 = add i32 %73, 1
  %.neg133 = xor i32 %73, -1
  %.neg = add i32 %6, %5
  %79 = add i32 %.neg, %.neg133
  %80 = load i32, ptr @hf_s7comm_data_ncprg_filedata, align 4
  %81 = tail call ptr @proto_tree_add_item(ptr noundef %2, i32 noundef %80, ptr noundef %0, i32 noundef %78, i32 noundef %79, i32 noundef 0)
  br label %92

82:                                               ; preds = %49, %58
  %83 = load i32, ptr @hf_s7comm_data_blockcontrol_unknown1, align 4
  %84 = tail call ptr @proto_tree_add_item(ptr noundef %2, i32 noundef %83, ptr noundef %0, i32 noundef %6, i32 noundef 2, i32 noundef 0)
  %85 = add i32 %6, 2
  %86 = add i32 %5, -2
  %87 = icmp ugt i32 %86, 3
  br i1 %87, label %88, label %92

88:                                               ; preds = %82
  %89 = load i32, ptr @hf_s7comm_userdata_data, align 4
  %90 = tail call ptr @proto_tree_add_item(ptr noundef %2, i32 noundef %89, ptr noundef %0, i32 noundef %85, i32 noundef %86, i32 noundef 0)
  %91 = add i32 %6, %5
  br label %92

92:                                               ; preds = %13, %42, %68, %74, %71, %60, %88, %82, %51, %24, %7
  %.0 = phi i32 [ %21, %13 ], [ %39, %24 ], [ %48, %42 ], [ %57, %51 ], [ %.neg, %74 ], [ %66, %71 ], [ %66, %68 ], [ %66, %60 ], [ %91, %88 ], [ %85, %82 ], [ %6, %7 ]
  call void @llvm.lifetime.end.p0(i64 8, ptr nonnull %8) #8
  ret i32 %.0
}